; Function Attrs: mustprogress nounwind
define internal noundef i32 @_ZN4mold3elfL24register_claim_file_hookINS0_6RV32BEEEENS_12PluginStatusEPFS3_PKNS_15PluginInputFileEPiE(ptr noundef %fn) #4 {
entry:
  %ref.tmp = alloca %"class.std::__cxx11::basic_ostringstream", align 8
  call void @_ZNSt7__cxx1119basic_ostringstreamIcSt11char_traitsIcESaIcEEC1Ev(ptr noundef nonnull align 8 dereferenceable(112) %ref.tmp) #19
  %call.i = call noundef nonnull align 8 dereferenceable(8) ptr @_ZStlsISt11char_traitsIcEERSt13basic_ostreamIcT_ES5_PKc(ptr noundef nonnull align 8 dereferenceable(8) %ref.tmp, ptr noundef nonnull @.str.46) #19
  call void @_ZNSt7__cxx1119basic_ostringstreamIcSt11char_traitsIcESaIcEED1Ev(ptr noundef nonnull align 8 dereferenceable(112) %ref.tmp) #19
  store ptr %fn, ptr @_ZN4mold3elfL15claim_file_hookE, align 8
  ret i32 0
}